target datalayout = "e-m:e-p270:32:32-p271:32:32-p272:64:64-i64:64-i128:128-f80:128-n8:16:32:64-S128"
target triple = "x86_64-pc-linux-gnu"

%"class.std::shared_ptr.19" = type { %"class.std::__shared_ptr.20" }
%"class.std::__shared_ptr.20" = type { ptr, %"class.std::__shared_count" }
%"class.std::__shared_count" = type { ptr }
%"class.arrow::ipc::feather::(anonymous namespace)::ReaderV1" = type { %"class.arrow::ipc::feather::Reader", %"class.std::shared_ptr", %"class.std::shared_ptr.19", ptr, %"class.std::shared_ptr.28" }
%"class.arrow::ipc::feather::Reader" = type { ptr }
%"class.std::shared_ptr" = type { %"class.std::__shared_ptr" }
%"class.std::__shared_ptr" = type { ptr, %"class.std::__shared_count" }
%"class.std::shared_ptr.28" = type { %"class.std::__shared_ptr.29" }
%"class.std::__shared_ptr.29" = type { ptr, %"class.std::__shared_count" }
%"class.arrow_vendored_private::flatbuffers::Table" = type { [1 x i8] }

; Function Attrs: mustprogress nounwind uwtable
define linkonce_odr noundef zeroext i16 @_ZN22arrow_vendored_private11flatbuffers12EndianScalarItEET_S2_(i16 noundef zeroext %0) #0 comdat {
  %2 = alloca i16, align 2
  store i16 %0, ptr %2, align 2, !tbaa !15
  %3 = load i16, ptr %2, align 2, !tbaa !15
  ret i16 %3
}

; Function Attrs: mustprogress nounwind uwtable
define linkonce_odr noundef i32 @_ZN22arrow_vendored_private11flatbuffers12EndianScalarIiEET_S2_(i32 noundef %0) #0 comdat {
  %2 = alloca i32, align 4
  store i32 %0, ptr %2, align 4, !tbaa !8
  %3 = load i32, ptr %2, align 4, !tbaa !8
  ret i32 %3
}

; Function Attrs: mustprogress uwtable
define linkonce_odr noundef zeroext i16 @_ZN22arrow_vendored_private11flatbuffers10ReadScalarItEET_PKv(ptr noundef %0) #1 comdat {
  %2 = alloca ptr, align 8
  store ptr %0, ptr %2, align 8, !tbaa !230
  %3 = load ptr, ptr %2, align 8, !tbaa !230
  %4 = load i16, ptr %3, align 2, !tbaa !15
  %5 = call noundef zeroext i16 @_ZN22arrow_vendored_private11flatbuffers12EndianScalarItEET_S2_(i16 noundef zeroext %4)
  ret i16 %5
}

; Function Attrs: mustprogress uwtable
define linkonce_odr noundef ptr @_ZNK22arrow_vendored_private11flatbuffers5Table9GetVTableEv(ptr noundef nonnull align 1 dereferenceable(1) %0) #1 comdat align 2 {
  %2 = alloca ptr, align 8
  store ptr %0, ptr %2, align 8, !tbaa !312
  %3 = load ptr, ptr %2, align 8
  %4 = getelementptr inbounds nuw %"class.arrow_vendored_private::flatbuffers::Table", ptr %3, i32 0, i32 0
  %5 = getelementptr inbounds [1 x i8], ptr %4, i64 0, i64 0
  %6 = getelementptr inbounds nuw %"class.arrow_vendored_private::flatbuffers::Table", ptr %3, i32 0, i32 0
  %7 = getelementptr inbounds [1 x i8], ptr %6, i64 0, i64 0
  %8 = call noundef i32 @_ZN22arrow_vendored_private11flatbuffers10ReadScalarIiEET_PKv(ptr noundef %7)
  %9 = sext i32 %8 to i64
  %10 = sub i64 0, %9
  %11 = getelementptr inbounds i8, ptr %5, i64 %10
  ret ptr %11
}

; Function Attrs: mustprogress uwtable
define linkonce_odr noundef i32 @_ZN22arrow_vendored_private11flatbuffers10ReadScalarIiEET_PKv(ptr noundef %0) #1 comdat {
  %2 = alloca ptr, align 8
  store ptr %0, ptr %2, align 8, !tbaa !230
  %3 = load ptr, ptr %2, align 8, !tbaa !230
  %4 = load i32, ptr %3, align 4, !tbaa !8
  %5 = call noundef i32 @_ZN22arrow_vendored_private11flatbuffers12EndianScalarIiEET_S2_(i32 noundef %4)
  ret i32 %5
}

; Function Attrs: mustprogress uwtable
define linkonce_odr noundef zeroext i16 @_ZNK22arrow_vendored_private11flatbuffers5Table22GetOptionalFieldOffsetEt(ptr noundef nonnull align 1 dereferenceable(1) %0, i16 noundef zeroext %1) #1 comdat align 2 {
  %3 = alloca ptr, align 8
  %4 = alloca i16, align 2
  %5 = alloca ptr, align 8
  %6 = alloca i16, align 2
  store ptr %0, ptr %3, align 8, !tbaa !312
  store i16 %1, ptr %4, align 2, !tbaa !15
  %7 = load ptr, ptr %3, align 8
  call void @llvm.lifetime.start.p0(i64 8, ptr %5) #19
  %8 = call noundef ptr @_ZNK22arrow_vendored_private11flatbuffers5Table9GetVTableEv(ptr noundef nonnull align 1 dereferenceable(1) %7)
  store ptr %8, ptr %5, align 8, !tbaa !69
  call void @llvm.lifetime.start.p0(i64 2, ptr %6) #19
  %9 = load ptr, ptr %5, align 8, !tbaa !69
  %10 = call noundef zeroext i16 @_ZN22arrow_vendored_private11flatbuffers10ReadScalarItEET_PKv(ptr noundef %9)
  store i16 %10, ptr %6, align 2, !tbaa !15
  %11 = load i16, ptr %4, align 2, !tbaa !15
  %12 = zext i16 %11 to i32
  %13 = load i16, ptr %6, align 2, !tbaa !15
  %14 = zext i16 %13 to i32
  %15 = icmp slt i32 %12, %14
  br i1 %15, label %16, label %24

16:                                               ; preds = %2
  %17 = load ptr, ptr %5, align 8, !tbaa !69
  %18 = load i16, ptr %4, align 2, !tbaa !15
  %19 = zext i16 %18 to i32
  %20 = sext i32 %19 to i64
  %21 = getelementptr inbounds i8, ptr %17, i64 %20
  %22 = call noundef zeroext i16 @_ZN22arrow_vendored_private11flatbuffers10ReadScalarItEET_PKv(ptr noundef %21)
  %23 = zext i16 %22 to i32
  br label %25

24:                                               ; preds = %2
  br label %25

25:                                               ; preds = %24, %16
  %26 = phi i32 [ %23, %16 ], [ 0, %24 ]
  %27 = trunc i32 %26 to i16
  call void @llvm.lifetime.end.p0(i64 2, ptr %6) #19
  call void @llvm.lifetime.end.p0(i64 8, ptr %5) #19
  ret i16 %27
}

; Function Attrs: mustprogress uwtable
define linkonce_odr noundef i32 @_ZNK22arrow_vendored_private11flatbuffers5Table8GetFieldIiEET_tS3_(ptr noundef nonnull align 1 dereferenceable(1) %0, i16 noundef zeroext %1, i32 noundef %2) #1 comdat align 2 {
  %4 = alloca ptr, align 8
  %5 = alloca i16, align 2
  %6 = alloca i32, align 4
  %7 = alloca i16, align 2
  store ptr %0, ptr %4, align 8, !tbaa !312
  store i16 %1, ptr %5, align 2, !tbaa !15
  store i32 %2, ptr %6, align 4, !tbaa !8
  %8 = load ptr, ptr %4, align 8
  call void @llvm.lifetime.start.p0(i64 2, ptr %7) #19
  %9 = load i16, ptr %5, align 2, !tbaa !15
  %10 = call noundef zeroext i16 @_ZNK22arrow_vendored_private11flatbuffers5Table22GetOptionalFieldOffsetEt(ptr noundef nonnull align 1 dereferenceable(1) %8, i16 noundef zeroext %9)
  store i16 %10, ptr %7, align 2, !tbaa !15
  %11 = load i16, ptr %7, align 2, !tbaa !15
  %12 = icmp ne i16 %11, 0
  br i1 %12, label %13, label %21

13:                                               ; preds = %3
  %14 = getelementptr inbounds nuw %"class.arrow_vendored_private::flatbuffers::Table", ptr %8, i32 0, i32 0
  %15 = getelementptr inbounds [1 x i8], ptr %14, i64 0, i64 0
  %16 = load i16, ptr %7, align 2, !tbaa !15
  %17 = zext i16 %16 to i32
  %18 = sext i32 %17 to i64
  %19 = getelementptr inbounds i8, ptr %15, i64 %18
  %20 = call noundef i32 @_ZN22arrow_vendored_private11flatbuffers10ReadScalarIiEET_PKv(ptr noundef %19)
  br label %23

21:                                               ; preds = %3
  %22 = load i32, ptr %6, align 4, !tbaa !8
  br label %23

23:                                               ; preds = %21, %13
  %24 = phi i32 [ %20, %13 ], [ %22, %21 ]
  call void @llvm.lifetime.end.p0(i64 2, ptr %7) #19
  ret i32 %24
}

; Function Attrs: mustprogress uwtable
define linkonce_odr noundef i32 @_ZNK5arrow3ipc7feather3fbs6CTable7versionEv(ptr noundef nonnull align 1 dereferenceable(1) %0) #1 comdat align 2 {
  %2 = alloca ptr, align 8
  store ptr %0, ptr %2, align 8, !tbaa !268
  %3 = load ptr, ptr %2, align 8
  %4 = call noundef i32 @_ZNK22arrow_vendored_private11flatbuffers5Table8GetFieldIiEET_tS3_(ptr noundef nonnull align 1 dereferenceable(1) %3, i16 noundef zeroext 10, i32 noundef 0)
  ret i32 %4
}

; Function Attrs: mustprogress uwtable
define internal noundef i32 @_ZNK5arrow3ipc7feather12_GLOBAL__N_18ReaderV17versionEv(ptr noundef nonnull align 8 dereferenceable(64) %0) unnamed_addr #1 align 2 {
  %2 = alloca ptr, align 8
  store ptr %0, ptr %2, align 8, !tbaa !104
  %3 = load ptr, ptr %2, align 8
  %4 = getelementptr inbounds nuw %"class.arrow::ipc::feather::(anonymous namespace)::ReaderV1", ptr %3, i32 0, i32 3
  %5 = load ptr, ptr %4, align 8, !tbaa !106
  %6 = call noundef i32 @_ZNK5arrow3ipc7feather3fbs6CTable7versionEv(ptr noundef nonnull align 1 dereferenceable(1) %5)
  ret i32 %6
}