; Function Attrs: mustprogress nofree norecurse nosync nounwind willreturn memory(read, inaccessiblemem: none) uwtable
define internal noundef i32 @_ZNK5arrow3ipc7feather12_GLOBAL__N_18ReaderV17versionEv(ptr noundef nonnull readonly align 8 captures(none) dereferenceable(64) %0) unnamed_addr #18 align 2 {
  %2 = getelementptr inbounds nuw i8, ptr %0, i64 40
  %3 = load ptr, ptr %2, align 8, !tbaa !105
  %4 = load i32, ptr %3, align 4, !tbaa !89
  %5 = sext i32 %4 to i64
  %6 = sub nsw i64 0, %5
  %7 = getelementptr inbounds i8, ptr %3, i64 %6
  %8 = load i16, ptr %7, align 2, !tbaa !117
  %9 = icmp ugt i16 %8, 10
  br i1 %9, label %_ZNK22arrow_vendored_private11flatbuffers5Table22GetOptionalFieldOffsetEt.exit.i.i, label %_ZNK5arrow3ipc7feather3fbs6CTable7versionEv.exit

_ZNK22arrow_vendored_private11flatbuffers5Table22GetOptionalFieldOffsetEt.exit.i.i: ; preds = %1
  %10 = getelementptr inbounds nuw i8, ptr %7, i64 10
  %11 = load i16, ptr %10, align 2, !tbaa !117
  %.not.i.i = icmp eq i16 %11, 0
  br i1 %.not.i.i, label %_ZNK5arrow3ipc7feather3fbs6CTable7versionEv.exit, label %12

12:                                               ; preds = %_ZNK22arrow_vendored_private11flatbuffers5Table22GetOptionalFieldOffsetEt.exit.i.i
  %13 = zext i16 %11 to i64
  %14 = getelementptr inbounds nuw i8, ptr %3, i64 %13
  %15 = load i32, ptr %14, align 4, !tbaa !89
  br label %_ZNK5arrow3ipc7feather3fbs6CTable7versionEv.exit

_ZNK5arrow3ipc7feather3fbs6CTable7versionEv.exit: ; preds = %1, %_ZNK22arrow_vendored_private11flatbuffers5Table22GetOptionalFieldOffsetEt.exit.i.i, %12
  %16 = phi i32 [ %15, %12 ], [ 0, %_ZNK22arrow_vendored_private11flatbuffers5Table22GetOptionalFieldOffsetEt.exit.i.i ], [ 0, %1 ]
  ret i32 %16
}